target datalayout = "e-m:e-p270:32:32-p271:32:32-p272:64:64-i64:64-i128:128-f80:128-n8:16:32:64-S128"
target triple = "x86_64-pc-linux-gnu"

%struct.lean_object = type { i32, i32 }
%struct.lean_ctor_object = type { %struct.lean_object, [0 x ptr] }

; Function Attrs: inlinehint nounwind uwtable
define internal ptr @lean_to_ctor(ptr noundef %0) #0 {
  %2 = alloca ptr, align 8
  store ptr %0, ptr %2, align 8, !tbaa !4
  %3 = load ptr, ptr %2, align 8, !tbaa !4
  ret ptr %3
}

; Function Attrs: inlinehint nounwind uwtable
define internal ptr @lean_ctor_obj_cptr(ptr noundef %0) #0 {
  %2 = alloca ptr, align 8
  store ptr %0, ptr %2, align 8, !tbaa !4
  %3 = load ptr, ptr %2, align 8, !tbaa !4
  %4 = call ptr @lean_to_ctor(ptr noundef %3)
  %5 = getelementptr inbounds nuw %struct.lean_ctor_object, ptr %4, i32 0, i32 1
  %6 = getelementptr inbounds [0 x ptr], ptr %5, i64 0, i64 0
  ret ptr %6
}

; Function Attrs: inlinehint nounwind uwtable
define internal zeroext i8 @lean_ptr_tag(ptr noundef %0) #0 {
  %2 = alloca ptr, align 8
  store ptr %0, ptr %2, align 8, !tbaa !4
  %3 = load ptr, ptr %2, align 8, !tbaa !4
  %4 = getelementptr inbounds nuw %struct.lean_object, ptr %3, i32 0, i32 1
  %5 = load i32, ptr %4, align 4
  %6 = lshr i32 %5, 24
  %7 = trunc i32 %6 to i8
  ret i8 %7
}

; Function Attrs: inlinehint nounwind uwtable
define internal i64 @lean_unbox(ptr noundef %0) #0 {
  %2 = alloca ptr, align 8
  store ptr %0, ptr %2, align 8, !tbaa !4
  %3 = load ptr, ptr %2, align 8, !tbaa !4
  %4 = ptrtoint ptr %3 to i64
  %5 = lshr i64 %4, 1
  ret i64 %5
}

; Function Attrs: alwaysinline nounwind uwtable
define internal zeroext i1 @lean_is_scalar(ptr noundef %0) #1 {
  %2 = alloca ptr, align 8
  store ptr %0, ptr %2, align 8, !tbaa !4
  %3 = load ptr, ptr %2, align 8, !tbaa !4
  %4 = ptrtoint ptr %3 to i64
  %5 = and i64 %4, 1
  %6 = icmp eq i64 %5, 1
  ret i1 %6
}

; Function Attrs: inlinehint nounwind uwtable
define internal ptr @lean_ctor_get(ptr noundef %0, i32 noundef %1) #0 {
  %3 = alloca ptr, align 8
  %4 = alloca i32, align 4
  store ptr %0, ptr %3, align 8, !tbaa !4
  store i32 %1, ptr %4, align 4, !tbaa !13
  %5 = load ptr, ptr %3, align 8, !tbaa !4
  %6 = call ptr @lean_ctor_obj_cptr(ptr noundef %5)
  %7 = load i32, ptr %4, align 4, !tbaa !13
  %8 = zext i32 %7 to i64
  %9 = getelementptr inbounds nuw ptr, ptr %6, i64 %8
  %10 = load ptr, ptr %9, align 8, !tbaa !4
  ret ptr %10
}

; Function Attrs: inlinehint nounwind uwtable
define internal i32 @lean_obj_tag(ptr noundef %0) #0 {
  %2 = alloca i32, align 4
  %3 = alloca ptr, align 8
  store ptr %0, ptr %3, align 8, !tbaa !4
  %4 = load ptr, ptr %3, align 8, !tbaa !4
  %5 = call zeroext i1 @lean_is_scalar(ptr noundef %4)
  br i1 %5, label %6, label %10

6:                                                ; preds = %1
  %7 = load ptr, ptr %3, align 8, !tbaa !4
  %8 = call i64 @lean_unbox(ptr noundef %7)
  %9 = trunc i64 %8 to i32
  store i32 %9, ptr %2, align 4
  br label %14

10:                                               ; preds = %1
  %11 = load ptr, ptr %3, align 8, !tbaa !4
  %12 = call zeroext i8 @lean_ptr_tag(ptr noundef %11)
  %13 = zext i8 %12 to i32
  store i32 %13, ptr %2, align 4
  br label %14

14:                                               ; preds = %10, %6
  %15 = load i32, ptr %2, align 4
  ret i32 %15
}

; Function Attrs: nounwind uwtable
define zeroext i8 @l_Lean_Expr_hasAnyFVar_visit___at_Lean_Elab_WF_GuessLex_complexMeasures___spec__4(ptr noundef %0, ptr noundef %1) #2 {
  %3 = alloca i8, align 1
  %4 = alloca ptr, align 8
  %5 = alloca ptr, align 8
  %6 = alloca i8, align 1
  %7 = alloca i8, align 1
  %8 = alloca i32, align 4
  %9 = alloca ptr, align 8
  %10 = alloca i8, align 1
  %11 = alloca i8, align 1
  %12 = alloca i8, align 1
  %13 = alloca ptr, align 8
  %14 = alloca ptr, align 8
  %15 = alloca i8, align 1
  %16 = alloca i8, align 1
  %17 = alloca ptr, align 8
  %18 = alloca ptr, align 8
  %19 = alloca i8, align 1
  %20 = alloca i8, align 1
  %21 = alloca ptr, align 8
  %22 = alloca ptr, align 8
  %23 = alloca i8, align 1
  %24 = alloca i8, align 1
  %25 = alloca ptr, align 8
  %26 = alloca ptr, align 8
  %27 = alloca ptr, align 8
  %28 = alloca i8, align 1
  %29 = alloca i8, align 1
  %30 = alloca i8, align 1
  %31 = alloca i8, align 1
  %32 = alloca ptr, align 8
  %33 = alloca ptr, align 8
  %34 = alloca i8, align 1
  store ptr %0, ptr %4, align 8, !tbaa !4
  store ptr %1, ptr %5, align 8, !tbaa !4
  br label %35

35:                                               ; preds = %146, %2
  call void @llvm.lifetime.start.p0(i64 1, ptr %6) #8
  %36 = load ptr, ptr %5, align 8, !tbaa !4
  %37 = call zeroext i8 @l_Lean_Expr_hasFVar(ptr noundef %36)
  store i8 %37, ptr %6, align 1, !tbaa !12
  %38 = load i8, ptr %6, align 1, !tbaa !12
  %39 = zext i8 %38 to i32
  %40 = icmp eq i32 %39, 0
  br i1 %40, label %41, label %43

41:                                               ; preds = %35
  call void @llvm.lifetime.start.p0(i64 1, ptr %7) #8
  store i8 0, ptr %7, align 1, !tbaa !12
  %42 = load i8, ptr %7, align 1, !tbaa !12
  store i8 %42, ptr %3, align 1
  store i32 1, ptr %8, align 4
  call void @llvm.lifetime.end.p0(i64 1, ptr %7) #8
  br label %146

43:                                               ; preds = %35
  %44 = load ptr, ptr %5, align 8, !tbaa !4
  %45 = call i32 @lean_obj_tag(ptr noundef %44)
  switch i32 %45, label %144 [
    i32 1, label %46
    i32 5, label %60
    i32 6, label %76
    i32 7, label %92
    i32 8, label %108
    i32 10, label %136
    i32 11, label %140
  ]

46:                                               ; preds = %43
  call void @llvm.lifetime.start.p0(i64 8, ptr %9) #8
  call void @llvm.lifetime.start.p0(i64 1, ptr %10) #8
  %47 = load ptr, ptr %5, align 8, !tbaa !4
  %48 = call ptr @lean_ctor_get(ptr noundef %47, i32 noundef 0)
  store ptr %48, ptr %9, align 8, !tbaa !4
  %49 = load ptr, ptr %4, align 8, !tbaa !4
  %50 = load ptr, ptr %9, align 8, !tbaa !4
  %51 = call zeroext i8 @l_Array_contains___at___private_Lean_Class_0__Lean_checkOutParam___spec__1(ptr noundef %49, ptr noundef %50)
  store i8 %51, ptr %10, align 1, !tbaa !12
  %52 = load i8, ptr %10, align 1, !tbaa !12
  %53 = zext i8 %52 to i32
  %54 = icmp eq i32 %53, 0
  br i1 %54, label %55, label %57

55:                                               ; preds = %46
  call void @llvm.lifetime.start.p0(i64 1, ptr %11) #8
  store i8 1, ptr %11, align 1, !tbaa !12
  %56 = load i8, ptr %11, align 1, !tbaa !12
  store i8 %56, ptr %3, align 1
  store i32 1, ptr %8, align 4
  call void @llvm.lifetime.end.p0(i64 1, ptr %11) #8
  br label %59

57:                                               ; preds = %46
  call void @llvm.lifetime.start.p0(i64 1, ptr %12) #8
  store i8 0, ptr %12, align 1, !tbaa !12
  %58 = load i8, ptr %12, align 1, !tbaa !12
  store i8 %58, ptr %3, align 1
  store i32 1, ptr %8, align 4
  call void @llvm.lifetime.end.p0(i64 1, ptr %12) #8
  br label %59

59:                                               ; preds = %57, %55
  call void @llvm.lifetime.end.p0(i64 1, ptr %10) #8
  call void @llvm.lifetime.end.p0(i64 8, ptr %9) #8
  br label %146

60:                                               ; preds = %43
  call void @llvm.lifetime.start.p0(i64 8, ptr %13) #8
  call void @llvm.lifetime.start.p0(i64 8, ptr %14) #8
  call void @llvm.lifetime.start.p0(i64 1, ptr %15) #8
  %61 = load ptr, ptr %5, align 8, !tbaa !4
  %62 = call ptr @lean_ctor_get(ptr noundef %61, i32 noundef 0)
  store ptr %62, ptr %13, align 8, !tbaa !4
  %63 = load ptr, ptr %5, align 8, !tbaa !4
  %64 = call ptr @lean_ctor_get(ptr noundef %63, i32 noundef 1)
  store ptr %64, ptr %14, align 8, !tbaa !4
  %65 = load ptr, ptr %4, align 8, !tbaa !4
  %66 = load ptr, ptr %13, align 8, !tbaa !4
  %67 = call zeroext i8 @l_Lean_Expr_hasAnyFVar_visit___at_Lean_Elab_WF_GuessLex_complexMeasures___spec__4(ptr noundef %65, ptr noundef %66)
  store i8 %67, ptr %15, align 1, !tbaa !12
  %68 = load i8, ptr %15, align 1, !tbaa !12
  %69 = zext i8 %68 to i32
  %70 = icmp eq i32 %69, 0
  br i1 %70, label %71, label %73

71:                                               ; preds = %60
  %72 = load ptr, ptr %14, align 8, !tbaa !4
  store ptr %72, ptr %5, align 8, !tbaa !4
  store i32 2, ptr %8, align 4
  br label %75

73:                                               ; preds = %60
  call void @llvm.lifetime.start.p0(i64 1, ptr %16) #8
  store i8 1, ptr %16, align 1, !tbaa !12
  %74 = load i8, ptr %16, align 1, !tbaa !12
  store i8 %74, ptr %3, align 1
  store i32 1, ptr %8, align 4
  call void @llvm.lifetime.end.p0(i64 1, ptr %16) #8
  br label %75

75:                                               ; preds = %73, %71
  call void @llvm.lifetime.end.p0(i64 1, ptr %15) #8
  call void @llvm.lifetime.end.p0(i64 8, ptr %14) #8
  call void @llvm.lifetime.end.p0(i64 8, ptr %13) #8
  br label %146

76:                                               ; preds = %43
  call void @llvm.lifetime.start.p0(i64 8, ptr %17) #8
  call void @llvm.lifetime.start.p0(i64 8, ptr %18) #8
  call void @llvm.lifetime.start.p0(i64 1, ptr %19) #8
  %77 = load ptr, ptr %5, align 8, !tbaa !4
  %78 = call ptr @lean_ctor_get(ptr noundef %77, i32 noundef 1)
  store ptr %78, ptr %17, align 8, !tbaa !4
  %79 = load ptr, ptr %5, align 8, !tbaa !4
  %80 = call ptr @lean_ctor_get(ptr noundef %79, i32 noundef 2)
  store ptr %80, ptr %18, align 8, !tbaa !4
  %81 = load ptr, ptr %4, align 8, !tbaa !4
  %82 = load ptr, ptr %17, align 8, !tbaa !4
  %83 = call zeroext i8 @l_Lean_Expr_hasAnyFVar_visit___at_Lean_Elab_WF_GuessLex_complexMeasures___spec__4(ptr noundef %81, ptr noundef %82)
  store i8 %83, ptr %19, align 1, !tbaa !12
  %84 = load i8, ptr %19, align 1, !tbaa !12
  %85 = zext i8 %84 to i32
  %86 = icmp eq i32 %85, 0
  br i1 %86, label %87, label %89

87:                                               ; preds = %76
  %88 = load ptr, ptr %18, align 8, !tbaa !4
  store ptr %88, ptr %5, align 8, !tbaa !4
  store i32 2, ptr %8, align 4
  br label %91

89:                                               ; preds = %76
  call void @llvm.lifetime.start.p0(i64 1, ptr %20) #8
  store i8 1, ptr %20, align 1, !tbaa !12
  %90 = load i8, ptr %20, align 1, !tbaa !12
  store i8 %90, ptr %3, align 1
  store i32 1, ptr %8, align 4
  call void @llvm.lifetime.end.p0(i64 1, ptr %20) #8
  br label %91

91:                                               ; preds = %89, %87
  call void @llvm.lifetime.end.p0(i64 1, ptr %19) #8
  call void @llvm.lifetime.end.p0(i64 8, ptr %18) #8
  call void @llvm.lifetime.end.p0(i64 8, ptr %17) #8
  br label %146

92:                                               ; preds = %43
  call void @llvm.lifetime.start.p0(i64 8, ptr %21) #8
  call void @llvm.lifetime.start.p0(i64 8, ptr %22) #8
  call void @llvm.lifetime.start.p0(i64 1, ptr %23) #8
  %93 = load ptr, ptr %5, align 8, !tbaa !4
  %94 = call ptr @lean_ctor_get(ptr noundef %93, i32 noundef 1)
  store ptr %94, ptr %21, align 8, !tbaa !4
  %95 = load ptr, ptr %5, align 8, !tbaa !4
  %96 = call ptr @lean_ctor_get(ptr noundef %95, i32 noundef 2)
  store ptr %96, ptr %22, align 8, !tbaa !4
  %97 = load ptr, ptr %4, align 8, !tbaa !4
  %98 = load ptr, ptr %21, align 8, !tbaa !4
  %99 = call zeroext i8 @l_Lean_Expr_hasAnyFVar_visit___at_Lean_Elab_WF_GuessLex_complexMeasures___spec__4(ptr noundef %97, ptr noundef %98)
  store i8 %99, ptr %23, align 1, !tbaa !12
  %100 = load i8, ptr %23, align 1, !tbaa !12
  %101 = zext i8 %100 to i32
  %102 = icmp eq i32 %101, 0
  br i1 %102, label %103, label %105

103:                                              ; preds = %92
  %104 = load ptr, ptr %22, align 8, !tbaa !4
  store ptr %104, ptr %5, align 8, !tbaa !4
  store i32 2, ptr %8, align 4
  br label %107

105:                                              ; preds = %92
  call void @llvm.lifetime.start.p0(i64 1, ptr %24) #8
  store i8 1, ptr %24, align 1, !tbaa !12
  %106 = load i8, ptr %24, align 1, !tbaa !12
  store i8 %106, ptr %3, align 1
  store i32 1, ptr %8, align 4
  call void @llvm.lifetime.end.p0(i64 1, ptr %24) #8
  br label %107

107:                                              ; preds = %105, %103
  call void @llvm.lifetime.end.p0(i64 1, ptr %23) #8
  call void @llvm.lifetime.end.p0(i64 8, ptr %22) #8
  call void @llvm.lifetime.end.p0(i64 8, ptr %21) #8
  br label %146

108:                                              ; preds = %43
  call void @llvm.lifetime.start.p0(i64 8, ptr %25) #8
  call void @llvm.lifetime.start.p0(i64 8, ptr %26) #8
  call void @llvm.lifetime.start.p0(i64 8, ptr %27) #8
  call void @llvm.lifetime.start.p0(i64 1, ptr %28) #8
  %109 = load ptr, ptr %5, align 8, !tbaa !4
  %110 = call ptr @lean_ctor_get(ptr noundef %109, i32 noundef 1)
  store ptr %110, ptr %25, align 8, !tbaa !4
  %111 = load ptr, ptr %5, align 8, !tbaa !4
  %112 = call ptr @lean_ctor_get(ptr noundef %111, i32 noundef 2)
  store ptr %112, ptr %26, align 8, !tbaa !4
  %113 = load ptr, ptr %5, align 8, !tbaa !4
  %114 = call ptr @lean_ctor_get(ptr noundef %113, i32 noundef 3)
  store ptr %114, ptr %27, align 8, !tbaa !4
  %115 = load ptr, ptr %4, align 8, !tbaa !4
  %116 = load ptr, ptr %25, align 8, !tbaa !4
  %117 = call zeroext i8 @l_Lean_Expr_hasAnyFVar_visit___at_Lean_Elab_WF_GuessLex_complexMeasures___spec__4(ptr noundef %115, ptr noundef %116)
  store i8 %117, ptr %28, align 1, !tbaa !12
  %118 = load i8, ptr %28, align 1, !tbaa !12
  %119 = zext i8 %118 to i32
  %120 = icmp eq i32 %119, 0
  br i1 %120, label %121, label %133

121:                                              ; preds = %108
  call void @llvm.lifetime.start.p0(i64 1, ptr %29) #8
  %122 = load ptr, ptr %4, align 8, !tbaa !4
  %123 = load ptr, ptr %26, align 8, !tbaa !4
  %124 = call zeroext i8 @l_Lean_Expr_hasAnyFVar_visit___at_Lean_Elab_WF_GuessLex_complexMeasures___spec__4(ptr noundef %122, ptr noundef %123)
  store i8 %124, ptr %29, align 1, !tbaa !12
  %125 = load i8, ptr %29, align 1, !tbaa !12
  %126 = zext i8 %125 to i32
  %127 = icmp eq i32 %126, 0
  br i1 %127, label %128, label %130

128:                                              ; preds = %121
  %129 = load ptr, ptr %27, align 8, !tbaa !4
  store ptr %129, ptr %5, align 8, !tbaa !4
  store i32 2, ptr %8, align 4
  br label %132

130:                                              ; preds = %121
  call void @llvm.lifetime.start.p0(i64 1, ptr %30) #8
  store i8 1, ptr %30, align 1, !tbaa !12
  %131 = load i8, ptr %30, align 1, !tbaa !12
  store i8 %131, ptr %3, align 1
  store i32 1, ptr %8, align 4
  call void @llvm.lifetime.end.p0(i64 1, ptr %30) #8
  br label %132

132:                                              ; preds = %130, %128
  call void @llvm.lifetime.end.p0(i64 1, ptr %29) #8
  br label %135

133:                                              ; preds = %108
  call void @llvm.lifetime.start.p0(i64 1, ptr %31) #8
  store i8 1, ptr %31, align 1, !tbaa !12
  %134 = load i8, ptr %31, align 1, !tbaa !12
  store i8 %134, ptr %3, align 1
  store i32 1, ptr %8, align 4
  call void @llvm.lifetime.end.p0(i64 1, ptr %31) #8
  br label %135

135:                                              ; preds = %133, %132
  call void @llvm.lifetime.end.p0(i64 1, ptr %28) #8
  call void @llvm.lifetime.end.p0(i64 8, ptr %27) #8
  call void @llvm.lifetime.end.p0(i64 8, ptr %26) #8
  call void @llvm.lifetime.end.p0(i64 8, ptr %25) #8
  br label %146

136:                                              ; preds = %43
  call void @llvm.lifetime.start.p0(i64 8, ptr %32) #8
  %137 = load ptr, ptr %5, align 8, !tbaa !4
  %138 = call ptr @lean_ctor_get(ptr noundef %137, i32 noundef 1)
  store ptr %138, ptr %32, align 8, !tbaa !4
  %139 = load ptr, ptr %32, align 8, !tbaa !4
  store ptr %139, ptr %5, align 8, !tbaa !4
  store i32 2, ptr %8, align 4
  call void @llvm.lifetime.end.p0(i64 8, ptr %32) #8
  br label %146

140:                                              ; preds = %43
  call void @llvm.lifetime.start.p0(i64 8, ptr %33) #8
  %141 = load ptr, ptr %5, align 8, !tbaa !4
  %142 = call ptr @lean_ctor_get(ptr noundef %141, i32 noundef 2)
  store ptr %142, ptr %33, align 8, !tbaa !4
  %143 = load ptr, ptr %33, align 8, !tbaa !4
  store ptr %143, ptr %5, align 8, !tbaa !4
  store i32 2, ptr %8, align 4
  call void @llvm.lifetime.end.p0(i64 8, ptr %33) #8
  br label %146

144:                                              ; preds = %43
  call void @llvm.lifetime.start.p0(i64 1, ptr %34) #8
  store i8 0, ptr %34, align 1, !tbaa !12
  %145 = load i8, ptr %34, align 1, !tbaa !12
  store i8 %145, ptr %3, align 1
  store i32 1, ptr %8, align 4
  call void @llvm.lifetime.end.p0(i64 1, ptr %34) #8
  br label %146

146:                                              ; preds = %144, %140, %136, %135, %107, %91, %75, %59, %41
  call void @llvm.lifetime.end.p0(i64 1, ptr %6) #8
  %147 = load i32, ptr %8, align 4
  switch i32 %147, label %150 [
    i32 1, label %148
    i32 2, label %35
  ]

148:                                              ; preds = %146
  %149 = load i8, ptr %3, align 1
  ret i8 %149

150:                                              ; preds = %146
  unreachable
}