; Function Attrs: nounwind uwtable
define zeroext range(i8 0, 2) i8 @l_Lean_Expr_hasAnyFVar_visit___at_Lean_Elab_WF_GuessLex_complexMeasures___spec__4(ptr noundef %0, ptr noundef %1) local_unnamed_addr #1 {
  %3 = tail call zeroext i8 @l_Lean_Expr_hasFVar(ptr noundef %1) #8
  %4 = icmp eq i8 %3, 0
  br i1 %4, label %.thread, label %.lr.ph

.lr.ph:                                           ; preds = %2, %select.unfold
  %.04991 = phi ptr [ %.150, %select.unfold ], [ %1, %2 ]
  %5 = ptrtoint ptr %.04991 to i64
  %6 = and i64 %5, 1
  %.not.i = icmp eq i64 %6, 0
  br i1 %.not.i, label %10, label %7

7:                                                ; preds = %.lr.ph
  %8 = lshr i64 %5, 1
  %9 = trunc i64 %8 to i32
  br label %lean_obj_tag.exit

10:                                               ; preds = %.lr.ph
  %11 = getelementptr i8, ptr %.04991, i64 4
  %.val.i = load i32, ptr %11, align 4
  %12 = lshr i32 %.val.i, 24
  br label %lean_obj_tag.exit

lean_obj_tag.exit:                                ; preds = %7, %10
  %.0.i = phi i32 [ %9, %7 ], [ %12, %10 ]
  switch i32 %.0.i, label %.thread [
    i32 1, label %13
    i32 5, label %18
    i32 6, label %25
    i32 7, label %32
    i32 8, label %39
    i32 10, label %select.unfold.sink.split
    i32 11, label %51
  ]

13:                                               ; preds = %lean_obj_tag.exit
  %14 = getelementptr inbounds nuw i8, ptr %.04991, i64 8
  %15 = load ptr, ptr %14, align 8, !tbaa !4
  %16 = tail call zeroext i8 @l_Array_contains___at___private_Lean_Class_0__Lean_checkOutParam___spec__1(ptr noundef %0, ptr noundef %15) #8
  %17 = icmp eq i8 %16, 0
  %. = zext i1 %17 to i8
  br label %.thread

18:                                               ; preds = %lean_obj_tag.exit
  %19 = getelementptr inbounds nuw i8, ptr %.04991, i64 8
  %20 = load ptr, ptr %19, align 8, !tbaa !4
  %21 = getelementptr inbounds nuw i8, ptr %.04991, i64 16
  %22 = load ptr, ptr %21, align 8, !tbaa !4
  %23 = tail call zeroext i8 @l_Lean_Expr_hasAnyFVar_visit___at_Lean_Elab_WF_GuessLex_complexMeasures___spec__4(ptr noundef %0, ptr noundef %20)
  %24 = icmp eq i8 %23, 0
  br i1 %24, label %select.unfold, label %.thread

25:                                               ; preds = %lean_obj_tag.exit
  %26 = getelementptr inbounds nuw i8, ptr %.04991, i64 16
  %27 = load ptr, ptr %26, align 8, !tbaa !4
  %28 = getelementptr inbounds nuw i8, ptr %.04991, i64 24
  %29 = load ptr, ptr %28, align 8, !tbaa !4
  %30 = tail call zeroext i8 @l_Lean_Expr_hasAnyFVar_visit___at_Lean_Elab_WF_GuessLex_complexMeasures___spec__4(ptr noundef %0, ptr noundef %27)
  %31 = icmp eq i8 %30, 0
  br i1 %31, label %select.unfold, label %.thread

32:                                               ; preds = %lean_obj_tag.exit
  %33 = getelementptr inbounds nuw i8, ptr %.04991, i64 16
  %34 = load ptr, ptr %33, align 8, !tbaa !4
  %35 = getelementptr inbounds nuw i8, ptr %.04991, i64 24
  %36 = load ptr, ptr %35, align 8, !tbaa !4
  %37 = tail call zeroext i8 @l_Lean_Expr_hasAnyFVar_visit___at_Lean_Elab_WF_GuessLex_complexMeasures___spec__4(ptr noundef %0, ptr noundef %34)
  %38 = icmp eq i8 %37, 0
  br i1 %38, label %select.unfold, label %.thread

39:                                               ; preds = %lean_obj_tag.exit
  %40 = getelementptr inbounds nuw i8, ptr %.04991, i64 16
  %41 = load ptr, ptr %40, align 8, !tbaa !4
  %42 = getelementptr inbounds nuw i8, ptr %.04991, i64 24
  %43 = load ptr, ptr %42, align 8, !tbaa !4
  %44 = getelementptr inbounds nuw i8, ptr %.04991, i64 32
  %45 = load ptr, ptr %44, align 8, !tbaa !4
  %46 = tail call zeroext i8 @l_Lean_Expr_hasAnyFVar_visit___at_Lean_Elab_WF_GuessLex_complexMeasures___spec__4(ptr noundef %0, ptr noundef %41)
  %47 = icmp eq i8 %46, 0
  br i1 %47, label %48, label %.thread

48:                                               ; preds = %39
  %49 = tail call zeroext i8 @l_Lean_Expr_hasAnyFVar_visit___at_Lean_Elab_WF_GuessLex_complexMeasures___spec__4(ptr noundef %0, ptr noundef %43)
  %50 = icmp eq i8 %49, 0
  br i1 %50, label %select.unfold, label %.thread

51:                                               ; preds = %lean_obj_tag.exit
  br label %select.unfold.sink.split

select.unfold.sink.split:                         ; preds = %lean_obj_tag.exit, %51
  %.sink89 = phi i64 [ 24, %51 ], [ 16, %lean_obj_tag.exit ]
  %52 = getelementptr inbounds nuw i8, ptr %.04991, i64 %.sink89
  %53 = load ptr, ptr %52, align 8, !tbaa !4
  br label %select.unfold

select.unfold:                                    ; preds = %select.unfold.sink.split, %48, %18, %25, %32
  %.150 = phi ptr [ %36, %32 ], [ %29, %25 ], [ %22, %18 ], [ %45, %48 ], [ %53, %select.unfold.sink.split ]
  %54 = tail call zeroext i8 @l_Lean_Expr_hasFVar(ptr noundef %.150) #8
  %55 = icmp eq i8 %54, 0
  br i1 %55, label %.thread, label %.lr.ph

.thread:                                          ; preds = %select.unfold, %39, %lean_obj_tag.exit, %32, %25, %18, %48, %2, %13
  %.178 = phi i8 [ %., %13 ], [ 0, %2 ], [ 1, %48 ], [ 1, %18 ], [ 1, %25 ], [ 1, %32 ], [ 0, %lean_obj_tag.exit ], [ 1, %39 ], [ 0, %select.unfold ]
  ret i8 %.178
}